; Function Attrs: nofree norecurse nosync nounwind null_pointer_is_valid sspstrong memory(read, inaccessiblemem: none) uwtable
define ptr @wmem_tree_lookup32_le(ptr noundef readonly captures(address_is_null) %0, i32 noundef %1) local_unnamed_addr #6 {
  %.not.i = icmp eq ptr %0, null
  br i1 %.not.i, label %wmem_tree_lookup32_le_node.exit.thread, label %3

3:                                                ; preds = %2
  %4 = getelementptr inbounds nuw i8, ptr %0, i64 16
  %5 = load ptr, ptr %4, align 8
  %.not3949.i = icmp eq ptr %5, null
  br i1 %.not3949.i, label %wmem_tree_lookup32_le_node.exit.thread, label %.lr.ph.i.preheader

.lr.ph.i.preheader:                               ; preds = %3
  %6 = getelementptr inbounds nuw i8, ptr %5, i64 24
  %7 = load ptr, ptr %6, align 8
  %8 = ptrtoint ptr %7 to i64
  %9 = trunc i64 %8 to i32
  %10 = icmp eq i32 %1, %9
  br i1 %10, label %wmem_tree_lookup32_le_node.exit.thread6, label %.lr.ph

.lr.ph:                                           ; preds = %.lr.ph.i.preheader, %.lr.ph.i
  %11 = phi i32 [ %26, %.lr.ph.i ], [ %9, %.lr.ph.i.preheader ]
  %.050.i13 = phi ptr [ %.1.i, %.lr.ph.i ], [ %5, %.lr.ph.i.preheader ]
  %12 = icmp ult i32 %1, %11
  br i1 %12, label %13, label %17

13:                                               ; preds = %.lr.ph
  %14 = getelementptr inbounds nuw i8, ptr %.050.i13, i64 8
  %15 = load ptr, ptr %14, align 8
  %16 = icmp eq ptr %15, null
  br i1 %16, label %28, label %.lr.ph.i

17:                                               ; preds = %.lr.ph
  %18 = icmp ugt i32 %1, %11
  br i1 %18, label %19, label %.lr.ph.i

19:                                               ; preds = %17
  %20 = getelementptr inbounds nuw i8, ptr %.050.i13, i64 16
  %21 = load ptr, ptr %20, align 8
  %22 = icmp eq ptr %21, null
  br i1 %22, label %wmem_tree_lookup32_le_node.exit, label %.lr.ph.i

.lr.ph.i:                                         ; preds = %19, %17, %13
  %.1.i = phi ptr [ %.050.i13, %17 ], [ %15, %13 ], [ %21, %19 ]
  %23 = getelementptr inbounds nuw i8, ptr %.1.i, i64 24
  %24 = load ptr, ptr %23, align 8
  %25 = ptrtoint ptr %24 to i64
  %26 = trunc i64 %25 to i32
  %27 = icmp eq i32 %1, %26
  br i1 %27, label %wmem_tree_lookup32_le_node.exit, label %.lr.ph

28:                                               ; preds = %13
  %29 = load ptr, ptr %.050.i13, align 8
  %30 = icmp eq ptr %29, null
  br i1 %30, label %wmem_tree_lookup32_le_node.exit.thread, label %31

31:                                               ; preds = %28
  %32 = getelementptr inbounds nuw i8, ptr %29, i64 8
  %33 = load ptr, ptr %32, align 8
  %34 = icmp eq ptr %.050.i13, %33
  br i1 %34, label %.preheader.i, label %wmem_tree_lookup32_le_node.exit.thread6

.preheader.i:                                     ; preds = %31, %40
  %.253.i = phi ptr [ %41, %40 ], [ %.050.i13, %31 ]
  %35 = getelementptr inbounds nuw i8, ptr %.253.i, i64 24
  %36 = load ptr, ptr %35, align 8
  %37 = ptrtoint ptr %36 to i64
  %38 = trunc i64 %37 to i32
  %39 = icmp ugt i32 %1, %38
  br i1 %39, label %wmem_tree_lookup32_le_node.exit, label %40

40:                                               ; preds = %.preheader.i
  %41 = load ptr, ptr %.253.i, align 8
  %.not41.i = icmp eq ptr %41, null
  br i1 %.not41.i, label %wmem_tree_lookup32_le_node.exit.thread, label %.preheader.i, !llvm.loop !14

wmem_tree_lookup32_le_node.exit:                  ; preds = %.lr.ph.i, %19, %.preheader.i
  %.030.i = phi ptr [ %.253.i, %.preheader.i ], [ %.1.i, %.lr.ph.i ], [ %.050.i13, %19 ]
  %42 = icmp eq ptr %.030.i, null
  br i1 %42, label %wmem_tree_lookup32_le_node.exit.thread, label %wmem_tree_lookup32_le_node.exit.thread6

wmem_tree_lookup32_le_node.exit.thread6:          ; preds = %.lr.ph.i.preheader, %31, %wmem_tree_lookup32_le_node.exit
  %.030.i8 = phi ptr [ %.030.i, %wmem_tree_lookup32_le_node.exit ], [ %29, %31 ], [ %5, %.lr.ph.i.preheader ]
  %43 = getelementptr inbounds nuw i8, ptr %.030.i8, i64 32
  %44 = load ptr, ptr %43, align 8
  br label %wmem_tree_lookup32_le_node.exit.thread

wmem_tree_lookup32_le_node.exit.thread:           ; preds = %40, %28, %3, %2, %wmem_tree_lookup32_le_node.exit, %wmem_tree_lookup32_le_node.exit.thread6
  %.0 = phi ptr [ %44, %wmem_tree_lookup32_le_node.exit.thread6 ], [ null, %wmem_tree_lookup32_le_node.exit ], [ null, %2 ], [ null, %3 ], [ null, %28 ], [ null, %40 ]
  ret ptr %.0
}